target datalayout = "e-m:e-p270:32:32-p271:32:32-p272:64:64-i64:64-i128:128-f80:128-n8:16:32:64-S128"
target triple = "x86_64-pc-linux-gnu"

%struct.msghdr = type { ptr, i32, ptr, i64, ptr, i64, i32 }
%struct.cmsghdr = type { i64, i32, i32, [0 x i8] }
%struct.sctp_sndrcvinfo = type { i16, i16, i16, i32, i32, i32, i32, i32, i32 }
%struct.controlData = type { i32, i16, i8, i32 }

; Function Attrs: nounwind uwtable
define hidden void @setControlData(ptr noundef %0, ptr noundef %1) #0 {
  %3 = alloca ptr, align 8
  %4 = alloca ptr, align 8
  %5 = alloca ptr, align 8
  %6 = alloca ptr, align 8
  store ptr %0, ptr %3, align 8
  store ptr %1, ptr %4, align 8
  %7 = load ptr, ptr %3, align 8
  %8 = getelementptr inbounds %struct.msghdr, ptr %7, i32 0, i32 5
  %9 = load i64, ptr %8, align 8
  %10 = icmp uge i64 %9, 16
  br i1 %10, label %11, label %15

11:                                               ; preds = %2
  %12 = load ptr, ptr %3, align 8
  %13 = getelementptr inbounds %struct.msghdr, ptr %12, i32 0, i32 4
  %14 = load ptr, ptr %13, align 8
  br label %16

15:                                               ; preds = %2
  br label %16

16:                                               ; preds = %15, %11
  %17 = phi ptr [ %14, %11 ], [ null, %15 ]
  store ptr %17, ptr %5, align 8
  %18 = load ptr, ptr %5, align 8
  %19 = getelementptr inbounds %struct.cmsghdr, ptr %18, i32 0, i32 1
  store i32 132, ptr %19, align 8
  %20 = load ptr, ptr %5, align 8
  %21 = getelementptr inbounds %struct.cmsghdr, ptr %20, i32 0, i32 2
  store i32 1, ptr %21, align 4
  %22 = load ptr, ptr %5, align 8
  %23 = getelementptr inbounds %struct.cmsghdr, ptr %22, i32 0, i32 0
  store i64 48, ptr %23, align 8
  %24 = load ptr, ptr %5, align 8
  %25 = getelementptr inbounds %struct.cmsghdr, ptr %24, i32 0, i32 3
  %26 = getelementptr inbounds [0 x i8], ptr %25, i64 0, i64 0
  store ptr %26, ptr %6, align 8
  %27 = load ptr, ptr %6, align 8
  call void @llvm.memset.p0.i64(ptr align 4 %27, i8 0, i64 32, i1 false)
  %28 = load ptr, ptr %4, align 8
  %29 = getelementptr inbounds %struct.controlData, ptr %28, i32 0, i32 1
  %30 = load i16, ptr %29, align 4
  %31 = zext i16 %30 to i32
  %32 = icmp sgt i32 %31, 0
  br i1 %32, label %33, label %39

33:                                               ; preds = %16
  %34 = load ptr, ptr %4, align 8
  %35 = getelementptr inbounds %struct.controlData, ptr %34, i32 0, i32 1
  %36 = load i16, ptr %35, align 4
  %37 = load ptr, ptr %6, align 8
  %38 = getelementptr inbounds %struct.sctp_sndrcvinfo, ptr %37, i32 0, i32 0
  store i16 %36, ptr %38, align 4
  br label %39

39:                                               ; preds = %33, %16
  %40 = load ptr, ptr %4, align 8
  %41 = getelementptr inbounds %struct.controlData, ptr %40, i32 0, i32 0
  %42 = load i32, ptr %41, align 4
  %43 = icmp sgt i32 %42, 0
  br i1 %43, label %44, label %50

44:                                               ; preds = %39
  %45 = load ptr, ptr %4, align 8
  %46 = getelementptr inbounds %struct.controlData, ptr %45, i32 0, i32 0
  %47 = load i32, ptr %46, align 4
  %48 = load ptr, ptr %6, align 8
  %49 = getelementptr inbounds %struct.sctp_sndrcvinfo, ptr %48, i32 0, i32 8
  store i32 %47, ptr %49, align 4
  br label %50

50:                                               ; preds = %44, %39
  %51 = load ptr, ptr %4, align 8
  %52 = getelementptr inbounds %struct.controlData, ptr %51, i32 0, i32 2
  %53 = load i8, ptr %52, align 2
  %54 = zext i8 %53 to i32
  %55 = icmp eq i32 %54, 1
  br i1 %55, label %56, label %65

56:                                               ; preds = %50
  %57 = load ptr, ptr %6, align 8
  %58 = getelementptr inbounds %struct.sctp_sndrcvinfo, ptr %57, i32 0, i32 2
  %59 = load i16, ptr %58, align 4
  %60 = zext i16 %59 to i32
  %61 = or i32 %60, 1
  %62 = trunc i32 %61 to i16
  %63 = load ptr, ptr %6, align 8
  %64 = getelementptr inbounds %struct.sctp_sndrcvinfo, ptr %63, i32 0, i32 2
  store i16 %62, ptr %64, align 4
  br label %65

65:                                               ; preds = %56, %50
  %66 = load ptr, ptr %4, align 8
  %67 = getelementptr inbounds %struct.controlData, ptr %66, i32 0, i32 3
  %68 = load i32, ptr %67, align 4
  %69 = icmp ugt i32 %68, 0
  br i1 %69, label %70, label %77

70:                                               ; preds = %65
  %71 = load ptr, ptr %4, align 8
  %72 = getelementptr inbounds %struct.controlData, ptr %71, i32 0, i32 3
  %73 = load i32, ptr %72, align 4
  %74 = call i32 @htonl(i32 noundef %73) #7
  %75 = load ptr, ptr %6, align 8
  %76 = getelementptr inbounds %struct.sctp_sndrcvinfo, ptr %75, i32 0, i32 3
  store i32 %74, ptr %76, align 4
  br label %77

77:                                               ; preds = %70, %65
  %78 = load ptr, ptr %5, align 8
  %79 = getelementptr inbounds %struct.cmsghdr, ptr %78, i32 0, i32 0
  %80 = load i64, ptr %79, align 8
  %81 = load ptr, ptr %3, align 8
  %82 = getelementptr inbounds %struct.msghdr, ptr %81, i32 0, i32 5
  store i64 %80, ptr %82, align 8
  ret void
}