; Function Attrs: mustprogress nofree nosync nounwind willreturn memory(write, argmem: readwrite, inaccessiblemem: none) uwtable
define hidden void @setControlData(ptr nocapture noundef %0, ptr nocapture noundef readonly %1) local_unnamed_addr #3 {
  %3 = getelementptr inbounds i8, ptr %0, i64 40
  %4 = load i64, ptr %3, align 8
  %5 = icmp ugt i64 %4, 15
  br i1 %5, label %6, label %9

6:                                                ; preds = %2
  %7 = getelementptr inbounds i8, ptr %0, i64 32
  %8 = load ptr, ptr %7, align 8
  br label %9

9:                                                ; preds = %2, %6
  %10 = phi ptr [ %8, %6 ], [ null, %2 ]
  %11 = getelementptr inbounds i8, ptr %10, i64 8
  store i32 132, ptr %11, align 8
  %12 = getelementptr inbounds i8, ptr %10, i64 12
  store i32 1, ptr %12, align 4
  store i64 48, ptr %10, align 8
  %13 = getelementptr inbounds i8, ptr %10, i64 16
  tail call void @llvm.memset.p0.i64(ptr noundef nonnull align 4 dereferenceable(32) %13, i8 0, i64 32, i1 false)
  %14 = getelementptr inbounds i8, ptr %1, i64 4
  %15 = load i16, ptr %14, align 4
  %.not = icmp eq i16 %15, 0
  br i1 %.not, label %17, label %16

16:                                               ; preds = %9
  store i16 %15, ptr %13, align 4
  br label %17

17:                                               ; preds = %16, %9
  %18 = load i32, ptr %1, align 4
  %19 = icmp sgt i32 %18, 0
  br i1 %19, label %20, label %22

20:                                               ; preds = %17
  %21 = getelementptr inbounds i8, ptr %10, i64 44
  store i32 %18, ptr %21, align 4
  br label %22

22:                                               ; preds = %20, %17
  %23 = getelementptr inbounds i8, ptr %1, i64 6
  %24 = load i8, ptr %23, align 2
  %25 = icmp eq i8 %24, 1
  br i1 %25, label %26, label %28

26:                                               ; preds = %22
  %27 = getelementptr inbounds i8, ptr %10, i64 20
  store i16 1, ptr %27, align 4
  br label %28

28:                                               ; preds = %26, %22
  %29 = getelementptr inbounds i8, ptr %1, i64 8
  %30 = load i32, ptr %29, align 4
  %.not22 = icmp eq i32 %30, 0
  br i1 %.not22, label %34, label %31

31:                                               ; preds = %28
  %32 = tail call i32 @htonl(i32 noundef %30) #12
  %33 = getelementptr inbounds i8, ptr %10, i64 24
  store i32 %32, ptr %33, align 4
  br label %34

34:                                               ; preds = %31, %28
  store i64 48, ptr %3, align 8
  ret void
}